(ccopy_reg
_reconstructor
p0
(csets
Set
p1
c__builtin__
object
p2
Ntp3
Rp4
((dp5
S'__POS_MD__'
p6
I01
sS'__CAPITALIZED__'
p7
I01
sS'__POSNEXT_PRP__'
p8
I01
sS'__POSPREV_IN__'
p9
I01
sS'__POSPREV_VBG__'
p10
I01
sS'__POS_IN__'
p11
I01
sS'__POSPREV_RP__'
p12
I01
sS'__POSPREV_VBZ__'
p13
I01
sS'__POSNEXT_NN__'
p14
I01
sS'__POSPREV_NNP__'
p15
I01
sS'__POS_TO__'
p16
I01
sS'__ALLCAPS__'
p17
I01
sS'__POSNEXT_DT__'
p18
I01
sS'__POS_JJ__'
p19
I01
sS'__POSPREV_TO__'
p20
I01
sS'__FIRSTWORD__'
p21
I01
sS'__POSNEXT_VBN__'
p22
I01
sS'__POSPREV_VB__'
p23
I01
sS'__POSPREV_VBD__'
p24
I01
sS'__POS_VBN__'
p25
I01
sS'__POS_VBG__'
p26
I01
sS'__POS_VBD__'
p27
I01
sS'__POSNEXT_VBZ__'
p28
I01
sS'__POSPREV_RB__'
p29
I01
sS'__POSPREV_CC__'
p30
I01
sS'__POSPREV_MD__'
p31
I01
sS'__POSNEXT_CC__'
p32
I01
sS'__POSNEXT_CD__'
p33
I01
sS'__POS_NNPS__'
p34
I01
sS'__POSNEXT_JJ__'
p35
I01
sS'__POSPREV_NNS__'
p36
I01
sS'__POSPREV_VBN__'
p37
I01
sS'__POSNEXT_IN__'
p38
I01
sS'__POSPREV_JJ__'
p39
I01
sS'__POS_PRP__'
p40
I01
sS'__POS_NN__'
p41
I01
sS'__POS_NNP__'
p42
I01
sS'__POS_RP__'
p43
I01
sS'__POSNEXT_NNP__'
p44
I01
sS'__POSNEXT_RB__'
p45
I01
sS'__POS_DT__'
p46
I01
sS'__POS_VBZ__'
p47
I01
sS'__POSNEXT_NNS__'
p48
I01
sS'__POS_CC__'
p49
I01
sS'__POSPREV_NNPS__'
p50
I01
sS'__POSNEXT_JJR__'
p51
I01
sS'__POSPREV_NN__'
p52
I01
sS'__POS_VB__'
p53
I01
sS'__POSNEXT_VBP__'
p54
I01
sS'__POSNEXT_PRP$__'
p55
I01
sS'__POSPREV_DT__'
p56
I01
sS'__SHORT__'
p57
I01
sS'__POSNEXT_TO__'
p58
I01
sS'__SECONDFIVE__'
p59
I01
sS'__POS_NNS__'
p60
I01
sS'__POSPREV_PRP$__'
p61
I01
sS'__POSNEXT_VBD__'
p62
I01
sS'__POS_CD__'
p63
I01
sS'__POS_RB__'
p64
I01
sS'__POSNEXT_RP__'
p65
I01
sS'__POSPREV_JJR__'
p66
I01
sS'__POSPREV_VBP__'
p67
I01
sS'__POSNEXT_VBG__'
p68
I01
sS'__POSNEXT_VB__'
p69
I01
sS'__POSPREV_CD__'
p70
I01
sS'__POSPREV_PRP__'
p71
I01
sS'__POS_PRP$__'
p72
I01
sS'__POS_JJR__'
p73
I01
sS'__POSNEXT_NNPS__'
p74
I01
sS'__POSNEXT_MD__'
p75
I01
sS'__LONG__'
p76
I01
sS'__FIRSTFIVE__'
p77
I01
sS'__POS_VBP__'
p78
I01
stp79
b(dp80
S'ham'
p81
F0.32793522267206476
sS'spam'
p82
F0.67206477732793524
s(dp83
(g11
g81
tp84
F0.00058105752469494478
s(g71
g82
tp85
F0.0040816326530612249
s(g50
g82
tp86
F0.0028257456828885402
s(g31
g81
tp87
F0.002905287623474724
s(g57
g81
tp88
F0.002905287623474724
s(g64
g82
tp89
F0.0015698587127158557
s(g37
g82
tp90
F0.0065934065934065934
s(g69
g82
tp91
F0.0053375196232339087
s(g56
g82
tp92
F0.0053375196232339087
s(g65
g82
tp93
F0.0015698587127158557
s(g25
g81
tp94
F0.00058105752469494478
s(g29
g82
tp95
F0.0015698587127158557
s(g33
g82
tp96
F0.0078492935635792772
s(g46
g82
tp97
F0.010361067503924647
s(g53
g82
tp98
F0.0040816326530612249
s(g73
g82
tp99
F0.0015698587127158557
s(g28
g82
tp100
F0.00031397174254317112
s(g71
g81
tp101
F0.00058105752469494478
s(g45
g82
tp102
F0.0015698587127158557
s(g39
g82
tp103
F0.0053375196232339087
s(g37
g81
tp104
F0.00058105752469494478
s(g69
g81
tp105
F0.00058105752469494478
s(g58
g82
tp106
F0.0040816326530612249
s(g56
g81
tp107
F0.0098779779198140613
s(g13
g81
tp108
F0.002905287623474724
s(g7
g82
tp109
F0.058084772370486655
s(g62
g81
tp110
F0.002905287623474724
s(g29
g81
tp111
F0.00058105752469494478
s(g77
g82
tp112
F0.058084772370486655
s(g42
g81
tp113
F0.10981987216734457
s(g74
g81
tp114
F0.002905287623474724
s(g32
g82
tp115
F0.00031397174254317112
s(g38
g81
tp116
F0.023823358512492735
s(g28
g81
tp117
F0.0168506682161534
s(g54
g81
tp118
F0.00058105752469494478
s(g45
g81
tp119
F0.00058105752469494478
s(g39
g81
tp120
F0.0075537478210342826
s(g34
g81
tp121
F0.002905287623474724
s(g67
g82
tp122
F0.0053375196232339087
s(g24
g81
tp123
F0.002905287623474724
s(g57
g82
tp124
F0.0028257456828885402
s(g26
g81
tp125
F0.00058105752469494478
s(g21
g81
tp126
F0.026147588611272515
s(g62
g82
tp127
F0.0028257456828885402
s(g59
g82
tp128
F0.063108320251177394
s(g78
g81
tp129
F0.00058105752469494478
s(g22
g82
tp130
F0.0065934065934065934
s(g63
g82
tp131
F0.0091051805337519619
s(g42
g82
tp132
F0.036734693877551024
s(g20
g82
tp133
F0.0040816326530612249
s(g12
g81
tp134
F0.00058105752469494478
s(g38
g82
tp135
F0.031711145996860285
s(g9
g81
tp136
F0.030796048808832074
s(g35
g82
tp137
F0.0091051805337519619
s(g54
g82
tp138
F0.0065934065934065934
s(g76
g82
tp139
F0.17362637362637362
s(g24
g82
tp140
F0.0028257456828885402
s(g14
g82
tp141
F0.035478806907378334
s(g26
g82
tp142
F0.0040816326530612249
s(g75
g82
tp143
F0.0015698587127158557
s(g18
g82
tp144
F0.0091051805337519619
s(g21
g82
tp145
F0.010361067503924647
s(g59
g81
tp146
F0.049389889599070307
s(g78
g82
tp147
F0.0065934065934065934
s(g53
g81
tp148
F0.002905287623474724
s(g34
g82
tp149
F0.0015698587127158557
s(g74
g82
tp150
F0.0015698587127158557
s(g63
g81
tp151
F0.00058105752469494478
s(g32
g81
tp152
F0.002905287623474724
s(g66
g81
tp153
F0.00058105752469494478
s(g17
g82
tp154
F0.012872841444270016
s(g20
g81
tp155
F0.002905287623474724
s(g12
g82
tp156
F0.0028257456828885402
s(g41
g81
tp157
F0.058686809994189425
s(g36
g81
tp158
F0.0052295177222545031
s(g9
g82
tp159
F0.024175824175824177
s(g35
g81
tp160
F0.00058105752469494478
s(g48
g81
tp161
F0.012202208018593841
s(g76
g81
tp162
F0.1284137129575828
s(g51
g82
tp163
F0.0015698587127158557
s(g15
g81
tp164
F0.061011040092969204
s(g72
g81
tp165
F0.00058105752469494478
s(g14
g81
tp166
F0.042417199302730968
s(g47
g82
tp167
F0.0091051805337519619
s(g72
g82
tp168
F0.0040816326530612249
s(g18
g81
tp169
F0.00058105752469494478
s(g30
g81
tp170
F0.002905287623474724
s(g49
g82
tp171
F0.0015698587127158557
s(g23
g81
tp172
F0.00058105752469494478
s(g77
g81
tp173
F0.10981987216734457
s(g70
g81
tp174
F0.002905287623474724
s(g8
g81
tp175
F0.00058105752469494478
s(g17
g81
tp176
F0.002905287623474724
s(g75
g81
tp177
F0.002905287623474724
s(g44
g81
tp178
F0.058686809994189425
s(g41
g82
tp179
F0.031711145996860285
s(g36
g82
tp180
F0.016640502354788068
s(g23
g82
tp181
F0.0053375196232339087
s(g48
g82
tp182
F0.010361067503924647
s(g22
g81
tp183
F0.002905287623474724
s(g15
g82
tp184
F0.054317111459968606
s(g47
g81
tp185
F0.00058105752469494478
s(g16
g81
tp186
F0.00058105752469494478
s(g30
g82
tp187
F0.00031397174254317112
s(g8
g82
tp188
F0.0040816326530612249
s(g55
g82
tp189
F0.0040816326530612249
s(g49
g81
tp190
F0.00058105752469494478
s(g64
g81
tp191
F0.00058105752469494478
s(g68
g81
tp192
F0.002905287623474724
s(g70
g82
tp193
F0.0065934065934065934
s(g51
g81
tp194
F0.00058105752469494478
s(g61
g82
tp195
F0.0040816326530612249
s(g7
g81
tp196
F0.11911679256246369
s(g10
g81
tp197
F0.00058105752469494478
s(g16
g82
tp198
F0.0053375196232339087
s(g66
g82
tp199
F0.0015698587127158557
s(g19
g81
tp200
F0.0075537478210342826
s(g60
g82
tp201
F0.017896389324960755
s(g55
g81
tp202
F0.00058105752469494478
s(g68
g82
tp203
F0.0015698587127158557
s(g73
g81
tp204
F0.00058105752469494478
s(g52
g82
tp205
F0.037990580847723707
s(g43
g82
tp206
F0.0028257456828885402
s(g58
g81
tp207
F0.002905287623474724
s(g27
g81
tp208
F0.0052295177222545031
s(g61
g81
tp209
F0.00058105752469494478
s(g31
g82
tp210
F0.0028257456828885402
s(g6
g81
tp211
F0.00058105752469494478
s(g44
g82
tp212
F0.053061224489795916
s(g40
g82
tp213
F0.0040816326530612249
s(g19
g82
tp214
F0.0053375196232339087
s(g60
g81
tp215
F0.0052295177222545031
s(g11
g82
tp216
F0.044270015698587128
s(g52
g81
tp217
F0.035444509006391629
s(g50
g81
tp218
F0.00058105752469494478
s(g43
g81
tp219
F0.00058105752469494478
s(g13
g82
tp220
F0.0065934065934065934
s(g27
g82
tp221
F0.0015698587127158557
s(g67
g81
tp222
F0.002905287623474724
s(g65
g81
tp223
F0.002905287623474724
s(g10
g82
tp224
F0.0040816326530612249
s(g25
g82
tp225
F0.0078492935635792772
s(g6
g82
tp226
F0.0040816326530612249
s(g33
g81
tp227
F0.002905287623474724
s(g46
g81
tp228
F0.00058105752469494478
s(g40
g81
tp229
F0.00058105752469494478
stp230
.